target datalayout = "e-m:e-p270:32:32-p271:32:32-p272:64:64-i64:64-i128:128-f80:128-n8:16:32:64-S128"
target triple = "x86_64-pc-linux-gnu"

%"class.LIEF::ELF::SymbolVersionRequirement" = type { %"class.LIEF::Object", %"class.std::vector", i16, %"class.std::__cxx11::basic_string" }
%"class.LIEF::Object" = type { ptr }
%"class.std::vector" = type { %"struct.std::_Vector_base" }
%"struct.std::_Vector_base" = type { %"struct.std::_Vector_base<std::unique_ptr<LIEF::ELF::SymbolVersionAuxRequirement>, std::allocator<std::unique_ptr<LIEF::ELF::SymbolVersionAuxRequirement>>>::_Vector_impl" }
%"struct.std::_Vector_base<std::unique_ptr<LIEF::ELF::SymbolVersionAuxRequirement>, std::allocator<std::unique_ptr<LIEF::ELF::SymbolVersionAuxRequirement>>>::_Vector_impl" = type { %"struct.std::_Vector_base<std::unique_ptr<LIEF::ELF::SymbolVersionAuxRequirement>, std::allocator<std::unique_ptr<LIEF::ELF::SymbolVersionAuxRequirement>>>::_Vector_impl_data" }
%"struct.std::_Vector_base<std::unique_ptr<LIEF::ELF::SymbolVersionAuxRequirement>, std::allocator<std::unique_ptr<LIEF::ELF::SymbolVersionAuxRequirement>>>::_Vector_impl_data" = type { ptr, ptr, ptr }
%"class.std::__cxx11::basic_string" = type { %"struct.std::__cxx11::basic_string<char>::_Alloc_hider", i64, %union.anon }
%"struct.std::__cxx11::basic_string<char>::_Alloc_hider" = type { ptr }
%union.anon = type { i64, [8 x i8] }

; Function Attrs: mustprogress nounwind uwtable
define linkonce_odr void @_ZSt15__alloc_on_swapISaISt10unique_ptrIN4LIEF3ELF27SymbolVersionAuxRequirementESt14default_deleteIS3_EEEEvRT_S9_(ptr noundef nonnull align 1 dereferenceable(1) %0, ptr noundef nonnull align 1 dereferenceable(1) %1) #2 comdat {
  %3 = alloca ptr, align 8
  %4 = alloca ptr, align 8
  store ptr %0, ptr %3, align 8
  store ptr %1, ptr %4, align 8
  ret void
}

; Function Attrs: mustprogress nounwind uwtable
define linkonce_odr hidden void @_ZNSt12_Vector_baseISt10unique_ptrIN4LIEF3ELF27SymbolVersionAuxRequirementESt14default_deleteIS3_EESaIS6_EE17_Vector_impl_data12_M_copy_dataERKS9_(ptr noundef nonnull align 8 dereferenceable(24) %0, ptr noundef nonnull align 8 dereferenceable(24) %1) #2 comdat align 2 {
  %3 = alloca ptr, align 8
  %4 = alloca ptr, align 8
  store ptr %0, ptr %3, align 8
  store ptr %1, ptr %4, align 8
  %5 = load ptr, ptr %3, align 8
  %6 = load ptr, ptr %4, align 8
  %7 = getelementptr inbounds %"struct.std::_Vector_base<std::unique_ptr<LIEF::ELF::SymbolVersionAuxRequirement>, std::allocator<std::unique_ptr<LIEF::ELF::SymbolVersionAuxRequirement>>>::_Vector_impl_data", ptr %6, i32 0, i32 0
  %8 = load ptr, ptr %7, align 8
  %9 = getelementptr inbounds %"struct.std::_Vector_base<std::unique_ptr<LIEF::ELF::SymbolVersionAuxRequirement>, std::allocator<std::unique_ptr<LIEF::ELF::SymbolVersionAuxRequirement>>>::_Vector_impl_data", ptr %5, i32 0, i32 0
  store ptr %8, ptr %9, align 8
  %10 = load ptr, ptr %4, align 8
  %11 = getelementptr inbounds %"struct.std::_Vector_base<std::unique_ptr<LIEF::ELF::SymbolVersionAuxRequirement>, std::allocator<std::unique_ptr<LIEF::ELF::SymbolVersionAuxRequirement>>>::_Vector_impl_data", ptr %10, i32 0, i32 1
  %12 = load ptr, ptr %11, align 8
  %13 = getelementptr inbounds %"struct.std::_Vector_base<std::unique_ptr<LIEF::ELF::SymbolVersionAuxRequirement>, std::allocator<std::unique_ptr<LIEF::ELF::SymbolVersionAuxRequirement>>>::_Vector_impl_data", ptr %5, i32 0, i32 1
  store ptr %12, ptr %13, align 8
  %14 = load ptr, ptr %4, align 8
  %15 = getelementptr inbounds %"struct.std::_Vector_base<std::unique_ptr<LIEF::ELF::SymbolVersionAuxRequirement>, std::allocator<std::unique_ptr<LIEF::ELF::SymbolVersionAuxRequirement>>>::_Vector_impl_data", ptr %14, i32 0, i32 2
  %16 = load ptr, ptr %15, align 8
  %17 = getelementptr inbounds %"struct.std::_Vector_base<std::unique_ptr<LIEF::ELF::SymbolVersionAuxRequirement>, std::allocator<std::unique_ptr<LIEF::ELF::SymbolVersionAuxRequirement>>>::_Vector_impl_data", ptr %5, i32 0, i32 2
  store ptr %16, ptr %17, align 8
  ret void
}

; Function Attrs: mustprogress nounwind uwtable
define linkonce_odr hidden void @_ZNSt12_Vector_baseISt10unique_ptrIN4LIEF3ELF27SymbolVersionAuxRequirementESt14default_deleteIS3_EESaIS6_EE17_Vector_impl_dataC2Ev(ptr noundef nonnull align 8 dereferenceable(24) %0) unnamed_addr #2 comdat align 2 {
  %2 = alloca ptr, align 8
  store ptr %0, ptr %2, align 8
  %3 = load ptr, ptr %2, align 8
  %4 = getelementptr inbounds %"struct.std::_Vector_base<std::unique_ptr<LIEF::ELF::SymbolVersionAuxRequirement>, std::allocator<std::unique_ptr<LIEF::ELF::SymbolVersionAuxRequirement>>>::_Vector_impl_data", ptr %3, i32 0, i32 0
  store ptr null, ptr %4, align 8
  %5 = getelementptr inbounds %"struct.std::_Vector_base<std::unique_ptr<LIEF::ELF::SymbolVersionAuxRequirement>, std::allocator<std::unique_ptr<LIEF::ELF::SymbolVersionAuxRequirement>>>::_Vector_impl_data", ptr %3, i32 0, i32 1
  store ptr null, ptr %5, align 8
  %6 = getelementptr inbounds %"struct.std::_Vector_base<std::unique_ptr<LIEF::ELF::SymbolVersionAuxRequirement>, std::allocator<std::unique_ptr<LIEF::ELF::SymbolVersionAuxRequirement>>>::_Vector_impl_data", ptr %3, i32 0, i32 2
  store ptr null, ptr %6, align 8
  ret void
}

; Function Attrs: noreturn nounwind uwtable
define linkonce_odr hidden void @__clang_call_terminate(ptr noundef %0) #5 comdat {
  %2 = call ptr @__cxa_begin_catch(ptr %0) #9
  call void @_ZSt9terminatev() #13
  unreachable
}

; Function Attrs: mustprogress uwtable
define linkonce_odr hidden void @_ZN9__gnu_cxx14__alloc_traitsISaISt10unique_ptrIN4LIEF3ELF27SymbolVersionAuxRequirementESt14default_deleteIS4_EEES7_E10_S_on_swapERS8_SA_(ptr noundef nonnull align 1 dereferenceable(1) %0, ptr noundef nonnull align 1 dereferenceable(1) %1) #0 comdat align 2 {
  %3 = alloca ptr, align 8
  %4 = alloca ptr, align 8
  store ptr %0, ptr %3, align 8
  store ptr %1, ptr %4, align 8
  %5 = load ptr, ptr %3, align 8
  %6 = load ptr, ptr %4, align 8
  call void @_ZSt15__alloc_on_swapISaISt10unique_ptrIN4LIEF3ELF27SymbolVersionAuxRequirementESt14default_deleteIS3_EEEEvRT_S9_(ptr noundef nonnull align 1 dereferenceable(1) %5, ptr noundef nonnull align 1 dereferenceable(1) %6)
  ret void
}

; Function Attrs: mustprogress nounwind uwtable
define linkonce_odr hidden noundef nonnull align 1 dereferenceable(1) ptr @_ZNSt12_Vector_baseISt10unique_ptrIN4LIEF3ELF27SymbolVersionAuxRequirementESt14default_deleteIS3_EESaIS6_EE19_M_get_Tp_allocatorEv(ptr noundef nonnull align 8 dereferenceable(24) %0) #2 comdat align 2 {
  %2 = alloca ptr, align 8
  store ptr %0, ptr %2, align 8
  %3 = load ptr, ptr %2, align 8
  %4 = getelementptr inbounds %"struct.std::_Vector_base", ptr %3, i32 0, i32 0
  ret ptr %4
}

; Function Attrs: mustprogress nounwind uwtable
define linkonce_odr hidden void @_ZNSt12_Vector_baseISt10unique_ptrIN4LIEF3ELF27SymbolVersionAuxRequirementESt14default_deleteIS3_EESaIS6_EE17_Vector_impl_data12_M_swap_dataERS9_(ptr noundef nonnull align 8 dereferenceable(24) %0, ptr noundef nonnull align 8 dereferenceable(24) %1) #2 comdat align 2 {
  %3 = alloca ptr, align 8
  %4 = alloca ptr, align 8
  %5 = alloca %"struct.std::_Vector_base<std::unique_ptr<LIEF::ELF::SymbolVersionAuxRequirement>, std::allocator<std::unique_ptr<LIEF::ELF::SymbolVersionAuxRequirement>>>::_Vector_impl_data", align 8
  store ptr %0, ptr %3, align 8
  store ptr %1, ptr %4, align 8
  %6 = load ptr, ptr %3, align 8
  call void @_ZNSt12_Vector_baseISt10unique_ptrIN4LIEF3ELF27SymbolVersionAuxRequirementESt14default_deleteIS3_EESaIS6_EE17_Vector_impl_dataC2Ev(ptr noundef nonnull align 8 dereferenceable(24) %5) #9
  call void @_ZNSt12_Vector_baseISt10unique_ptrIN4LIEF3ELF27SymbolVersionAuxRequirementESt14default_deleteIS3_EESaIS6_EE17_Vector_impl_data12_M_copy_dataERKS9_(ptr noundef nonnull align 8 dereferenceable(24) %5, ptr noundef nonnull align 8 dereferenceable(24) %6) #9
  %7 = load ptr, ptr %4, align 8
  call void @_ZNSt12_Vector_baseISt10unique_ptrIN4LIEF3ELF27SymbolVersionAuxRequirementESt14default_deleteIS3_EESaIS6_EE17_Vector_impl_data12_M_copy_dataERKS9_(ptr noundef nonnull align 8 dereferenceable(24) %6, ptr noundef nonnull align 8 dereferenceable(24) %7) #9
  %8 = load ptr, ptr %4, align 8
  call void @_ZNSt12_Vector_baseISt10unique_ptrIN4LIEF3ELF27SymbolVersionAuxRequirementESt14default_deleteIS3_EESaIS6_EE17_Vector_impl_data12_M_copy_dataERKS9_(ptr noundef nonnull align 8 dereferenceable(24) %8, ptr noundef nonnull align 8 dereferenceable(24) %5) #9
  ret void
}

; Function Attrs: mustprogress nounwind uwtable
define linkonce_odr hidden void @_ZNSt6vectorISt10unique_ptrIN4LIEF3ELF27SymbolVersionAuxRequirementESt14default_deleteIS3_EESaIS6_EE4swapERS8_(ptr noundef nonnull align 8 dereferenceable(24) %0, ptr noundef nonnull align 8 dereferenceable(24) %1) #2 comdat align 2 personality ptr @__gxx_personality_v0 {
  %3 = alloca ptr, align 8
  %4 = alloca ptr, align 8
  store ptr %0, ptr %3, align 8
  store ptr %1, ptr %4, align 8
  %5 = load ptr, ptr %3, align 8
  br label %6

6:                                                ; preds = %2
  br label %7

7:                                                ; preds = %6
  br label %8

8:                                                ; preds = %7
  %9 = getelementptr inbounds %"struct.std::_Vector_base", ptr %5, i32 0, i32 0
  %10 = load ptr, ptr %4, align 8
  %11 = getelementptr inbounds %"struct.std::_Vector_base", ptr %10, i32 0, i32 0
  call void @_ZNSt12_Vector_baseISt10unique_ptrIN4LIEF3ELF27SymbolVersionAuxRequirementESt14default_deleteIS3_EESaIS6_EE17_Vector_impl_data12_M_swap_dataERS9_(ptr noundef nonnull align 8 dereferenceable(24) %9, ptr noundef nonnull align 8 dereferenceable(24) %11) #9
  %12 = call noundef nonnull align 1 dereferenceable(1) ptr @_ZNSt12_Vector_baseISt10unique_ptrIN4LIEF3ELF27SymbolVersionAuxRequirementESt14default_deleteIS3_EESaIS6_EE19_M_get_Tp_allocatorEv(ptr noundef nonnull align 8 dereferenceable(24) %5) #9
  %13 = load ptr, ptr %4, align 8
  %14 = call noundef nonnull align 1 dereferenceable(1) ptr @_ZNSt12_Vector_baseISt10unique_ptrIN4LIEF3ELF27SymbolVersionAuxRequirementESt14default_deleteIS3_EESaIS6_EE19_M_get_Tp_allocatorEv(ptr noundef nonnull align 8 dereferenceable(24) %13) #9
  invoke void @_ZN9__gnu_cxx14__alloc_traitsISaISt10unique_ptrIN4LIEF3ELF27SymbolVersionAuxRequirementESt14default_deleteIS4_EEES7_E10_S_on_swapERS8_SA_(ptr noundef nonnull align 1 dereferenceable(1) %12, ptr noundef nonnull align 1 dereferenceable(1) %14)
          to label %15 unwind label %16

15:                                               ; preds = %8
  ret void

16:                                               ; preds = %8
  %17 = landingpad { ptr, i32 }
          catch ptr null
  %18 = extractvalue { ptr, i32 } %17, 0
  call void @__clang_call_terminate(ptr %18) #13
  unreachable
}

; Function Attrs: mustprogress nounwind uwtable
define linkonce_odr void @_ZSt4swapIcSt11char_traitsIcESaIcEEvRNSt7__cxx1112basic_stringIT_T0_T1_EES9_(ptr noundef nonnull align 8 dereferenceable(32) %0, ptr noundef nonnull align 8 dereferenceable(32) %1) #2 comdat {
  %3 = alloca ptr, align 8
  %4 = alloca ptr, align 8
  store ptr %0, ptr %3, align 8
  store ptr %1, ptr %4, align 8
  %5 = load ptr, ptr %3, align 8
  %6 = load ptr, ptr %4, align 8
  call void @_ZNSt7__cxx1112basic_stringIcSt11char_traitsIcESaIcEE4swapERS4_(ptr noundef nonnull align 8 dereferenceable(32) %5, ptr noundef nonnull align 8 dereferenceable(32) %6) #9
  ret void
}

; Function Attrs: mustprogress nounwind uwtable
define linkonce_odr void @_ZSt4swapItENSt9enable_ifIXsr6__and_ISt6__not_ISt15__is_tuple_likeIT_EESt21is_move_constructibleIS3_ESt18is_move_assignableIS3_EEE5valueEvE4typeERS3_SC_(ptr noundef nonnull align 2 dereferenceable(2) %0, ptr noundef nonnull align 2 dereferenceable(2) %1) #2 comdat {
  %3 = alloca ptr, align 8
  %4 = alloca ptr, align 8
  %5 = alloca i16, align 2
  store ptr %0, ptr %3, align 8
  store ptr %1, ptr %4, align 8
  %6 = load ptr, ptr %3, align 8
  %7 = load i16, ptr %6, align 2
  store i16 %7, ptr %5, align 2
  %8 = load ptr, ptr %4, align 8
  %9 = load i16, ptr %8, align 2
  %10 = load ptr, ptr %3, align 8
  store i16 %9, ptr %10, align 2
  %11 = load i16, ptr %5, align 2
  %12 = load ptr, ptr %4, align 8
  store i16 %11, ptr %12, align 2
  ret void
}

; Function Attrs: mustprogress nounwind uwtable
define linkonce_odr void @_ZSt4swapISt10unique_ptrIN4LIEF3ELF27SymbolVersionAuxRequirementESt14default_deleteIS3_EESaIS6_EEvRSt6vectorIT_T0_ESC_(ptr noundef nonnull align 8 dereferenceable(24) %0, ptr noundef nonnull align 8 dereferenceable(24) %1) #2 comdat {
  %3 = alloca ptr, align 8
  %4 = alloca ptr, align 8
  store ptr %0, ptr %3, align 8
  store ptr %1, ptr %4, align 8
  %5 = load ptr, ptr %3, align 8
  %6 = load ptr, ptr %4, align 8
  call void @_ZNSt6vectorISt10unique_ptrIN4LIEF3ELF27SymbolVersionAuxRequirementESt14default_deleteIS3_EESaIS6_EE4swapERS8_(ptr noundef nonnull align 8 dereferenceable(24) %5, ptr noundef nonnull align 8 dereferenceable(24) %6) #9
  ret void
}

; Function Attrs: mustprogress nounwind uwtable
define void @_ZN4LIEF3ELF24SymbolVersionRequirement4swapERS1_(ptr noundef nonnull align 8 dereferenceable(72) %0, ptr noundef nonnull align 8 dereferenceable(72) %1) #2 align 2 {
  %3 = alloca ptr, align 8
  %4 = alloca ptr, align 8
  store ptr %0, ptr %3, align 8
  store ptr %1, ptr %4, align 8
  %5 = load ptr, ptr %3, align 8
  %6 = getelementptr inbounds %"class.LIEF::ELF::SymbolVersionRequirement", ptr %5, i32 0, i32 1
  %7 = load ptr, ptr %4, align 8
  %8 = getelementptr inbounds %"class.LIEF::ELF::SymbolVersionRequirement", ptr %7, i32 0, i32 1
  call void @_ZSt4swapISt10unique_ptrIN4LIEF3ELF27SymbolVersionAuxRequirementESt14default_deleteIS3_EESaIS6_EEvRSt6vectorIT_T0_ESC_(ptr noundef nonnull align 8 dereferenceable(24) %6, ptr noundef nonnull align 8 dereferenceable(24) %8) #9
  %9 = getelementptr inbounds %"class.LIEF::ELF::SymbolVersionRequirement", ptr %5, i32 0, i32 2
  %10 = load ptr, ptr %4, align 8
  %11 = getelementptr inbounds %"class.LIEF::ELF::SymbolVersionRequirement", ptr %10, i32 0, i32 2
  call void @_ZSt4swapItENSt9enable_ifIXsr6__and_ISt6__not_ISt15__is_tuple_likeIT_EESt21is_move_constructibleIS3_ESt18is_move_assignableIS3_EEE5valueEvE4typeERS3_SC_(ptr noundef nonnull align 2 dereferenceable(2) %9, ptr noundef nonnull align 2 dereferenceable(2) %11) #9
  %12 = getelementptr inbounds %"class.LIEF::ELF::SymbolVersionRequirement", ptr %5, i32 0, i32 3
  %13 = load ptr, ptr %4, align 8
  %14 = getelementptr inbounds %"class.LIEF::ELF::SymbolVersionRequirement", ptr %13, i32 0, i32 3
  call void @_ZSt4swapIcSt11char_traitsIcESaIcEEvRNSt7__cxx1112basic_stringIT_T0_T1_EES9_(ptr noundef nonnull align 8 dereferenceable(32) %12, ptr noundef nonnull align 8 dereferenceable(32) %14) #9
  ret void
}